; Function Attrs: nounwind uwtable
define ptr @l_Lean_Elab_Tactic_evalGrindCore___lambda__2(ptr noundef %0, i8 noundef zeroext %1, ptr noundef %2, ptr noundef %3, ptr noundef readnone captures(none) %4, ptr noundef %5, ptr noundef %6, ptr noundef %7, ptr noundef %8, ptr noundef %9, ptr noundef %10, ptr noundef %11, ptr noundef %12, ptr noundef %13) local_unnamed_addr #0 {
  tail call void @lean_inc_heartbeat() #5
  %15 = tail call noalias ptr @mi_malloc_small(i64 noundef 56) #5
  %16 = icmp eq ptr %15, null
  br i1 %16, label %17, label %lean_alloc_closure.exit

17:                                               ; preds = %14
  tail call void @lean_internal_panic_out_of_memory() #6
  unreachable

lean_alloc_closure.exit:                          ; preds = %14
  %18 = zext i8 %1 to i64
  %19 = shl nuw nsw i64 %18, 1
  %20 = or disjoint i64 %19, 1
  %21 = inttoptr i64 %20 to ptr
  %22 = getelementptr inbounds nuw i8, ptr %15, i64 4
  store i32 1, ptr %15, align 4, !tbaa !8
  store i32 -184549320, ptr %22, align 4
  %23 = getelementptr inbounds nuw i8, ptr %15, i64 8
  store ptr @l_Lean_Elab_Tactic_evalGrindCore___lambda__1___boxed, ptr %23, align 8, !tbaa !4
  %24 = getelementptr inbounds nuw i8, ptr %15, i64 16
  store i16 13, ptr %24, align 8, !tbaa !16
  %25 = getelementptr inbounds nuw i8, ptr %15, i64 18
  store i16 4, ptr %25, align 2, !tbaa !16
  %26 = getelementptr inbounds nuw i8, ptr %15, i64 24
  store ptr %0, ptr %26, align 8, !tbaa !4
  %27 = getelementptr inbounds nuw i8, ptr %15, i64 32
  store ptr %21, ptr %27, align 8, !tbaa !4
  %28 = getelementptr inbounds nuw i8, ptr %15, i64 40
  store ptr %2, ptr %28, align 8, !tbaa !4
  %29 = getelementptr inbounds nuw i8, ptr %15, i64 48
  store ptr %3, ptr %29, align 8, !tbaa !4
  %30 = tail call ptr @l_Lean_Elab_Tactic_withMainContext___rarg(ptr noundef nonnull %15, ptr noundef %5, ptr noundef %6, ptr noundef %7, ptr noundef %8, ptr noundef %9, ptr noundef %10, ptr noundef %11, ptr noundef %12, ptr noundef %13) #5
  ret ptr %30
}